target datalayout = "e-m:e-p270:32:32-p271:32:32-p272:64:64-i64:64-i128:128-f80:128-n8:16:32:64-S128"
target triple = "x86_64-pc-linux-gnu"

%struct.expert_field = type { i32, i32 }
%struct.MessageHeader = type { [4 x i8], %struct.Version, i8, i8, i32, i32, i32, ptr }
%struct.Version = type { i8, i8 }

@hf_GIAS_CreationMgr_create_association_assoc_name = internal global i32 0, align 4
@hf_GIAS_CreationMgr_create_association_view_b_objects_loop = internal global i32 0, align 4
@hf_GIAS_CreationMgr_create_association_assoc_info_loop = internal global i32 0, align 4
@hf_UCO_NameValue_aname = internal global i32 0, align 4
@ei_gias_unknown_giop_msg = internal global %struct.expert_field zeroinitializer, align 4
@ei_gias_unknown_exception = internal global %struct.expert_field zeroinitializer, align 4
@ett_giop_struct = internal global i32 0, align 4
@ett_giop_sequence = internal global i32 0, align 4
@boundary = internal global i32 12, align 4
@.str.826 = private unnamed_addr constant [21 x i8] c"Unknown exception %d\00", align 1
@.str.827 = private unnamed_addr constant [24 x i8] c"Unknown GIOP message %d\00", align 1
@.str.855 = private unnamed_addr constant [21 x i8] c"struct UCO_NameValue\00", align 1
@.str.887 = private unnamed_addr constant [60 x i8] c"sequence GIAS_CreationMgr_create_association_view_b_objects\00", align 1
@.str.888 = private unnamed_addr constant [56 x i8] c"sequence GIAS_CreationMgr_create_association_assoc_info\00", align 1

; Function Attrs: null_pointer_is_valid sspstrong uwtable
define internal void @decode_UCO_NameValue_st(ptr noundef %0, ptr noundef %1, ptr noundef %2, ptr noundef %3, ptr noundef %4, ptr noundef %5, ptr noundef %6, i1 noundef zeroext %7) #0 {
  %9 = alloca ptr, align 8
  %10 = alloca ptr, align 8
  %11 = alloca ptr, align 8
  %12 = alloca ptr, align 8
  %13 = alloca ptr, align 8
  %14 = alloca ptr, align 8
  %15 = alloca ptr, align 8
  %16 = alloca i8, align 1
  store ptr %0, ptr %9, align 8
  store ptr %1, ptr %10, align 8
  store ptr %2, ptr %11, align 8
  store ptr %3, ptr %12, align 8
  store ptr %4, ptr %13, align 8
  store ptr %5, ptr %14, align 8
  store ptr %6, ptr %15, align 8
  %17 = zext i1 %7 to i8
  store i8 %17, ptr %16, align 1
  %18 = load ptr, ptr %11, align 8
  %19 = load ptr, ptr %9, align 8
  %20 = load ptr, ptr %13, align 8
  %21 = load i8, ptr %16, align 1, !range !6, !noundef !7
  %22 = trunc i8 %21 to i1
  %23 = load i32, ptr @boundary, align 4
  %24 = load i32, ptr @hf_UCO_NameValue_aname, align 4
  call void @giop_add_CDR_string(ptr noundef %18, ptr noundef %19, ptr noundef %20, i1 noundef zeroext %22, i32 noundef %23, i32 noundef %24)
  %25 = load ptr, ptr %9, align 8
  %26 = load ptr, ptr %10, align 8
  %27 = load ptr, ptr %11, align 8
  %28 = load ptr, ptr %12, align 8
  %29 = load ptr, ptr %13, align 8
  %30 = load i8, ptr %16, align 1, !range !6, !noundef !7
  %31 = trunc i8 %30 to i1
  %32 = load i32, ptr @boundary, align 4
  %33 = load ptr, ptr %14, align 8
  call void @get_CDR_any(ptr noundef %25, ptr noundef %26, ptr noundef %27, ptr noundef %28, ptr noundef %29, i1 noundef zeroext %31, i32 noundef %32, ptr noundef %33)
  ret void
}

; Function Attrs: null_pointer_is_valid sspstrong uwtable
define internal void @decode_GIAS_CreationMgr_create_association(ptr noundef %0, ptr noundef %1, ptr noundef %2, ptr noundef %3, ptr noundef %4, ptr noundef %5, ptr noundef %6, i1 noundef zeroext %7) #0 {
  %9 = alloca ptr, align 8
  %10 = alloca ptr, align 8
  %11 = alloca ptr, align 8
  %12 = alloca ptr, align 8
  %13 = alloca ptr, align 8
  %14 = alloca ptr, align 8
  %15 = alloca ptr, align 8
  %16 = alloca i8, align 1
  %17 = alloca i32, align 4
  %18 = alloca i32, align 4
  %19 = alloca i32, align 4
  %20 = alloca i32, align 4
  %21 = alloca ptr, align 8
  %22 = alloca ptr, align 8
  %23 = alloca ptr, align 8
  store ptr %0, ptr %9, align 8
  store ptr %1, ptr %10, align 8
  store ptr %2, ptr %11, align 8
  store ptr %3, ptr %12, align 8
  store ptr %4, ptr %13, align 8
  store ptr %5, ptr %14, align 8
  store ptr %6, ptr %15, align 8
  %24 = zext i1 %7 to i8
  store i8 %24, ptr %16, align 1
  call void @llvm.lifetime.start.p0(i64 4, ptr %17) #6
  call void @llvm.lifetime.start.p0(i64 4, ptr %18) #6
  call void @llvm.lifetime.start.p0(i64 4, ptr %19) #6
  call void @llvm.lifetime.start.p0(i64 4, ptr %20) #6
  %25 = load ptr, ptr %14, align 8
  %26 = getelementptr inbounds nuw %struct.MessageHeader, ptr %25, i32 0, i32 3
  %27 = load i8, ptr %26, align 1
  %28 = zext i8 %27 to i32
  switch i32 %28, label %148 [
    i32 0, label %29
    i32 1, label %128
  ]

29:                                               ; preds = %8
  %30 = load ptr, ptr %11, align 8
  %31 = load ptr, ptr %9, align 8
  %32 = load ptr, ptr %13, align 8
  %33 = load i8, ptr %16, align 1, !range !6, !noundef !7
  %34 = trunc i8 %33 to i1
  %35 = load i32, ptr @boundary, align 4
  %36 = load i32, ptr @hf_GIAS_CreationMgr_create_association_assoc_name, align 4
  call void @giop_add_CDR_string(ptr noundef %30, ptr noundef %31, ptr noundef %32, i1 noundef zeroext %34, i32 noundef %35, i32 noundef %36)
  %37 = load ptr, ptr %9, align 8
  %38 = load ptr, ptr %10, align 8
  %39 = load ptr, ptr %11, align 8
  %40 = load ptr, ptr %13, align 8
  %41 = load i8, ptr %16, align 1, !range !6, !noundef !7
  %42 = trunc i8 %41 to i1
  %43 = load i32, ptr @boundary, align 4
  call void @get_CDR_object(ptr noundef %37, ptr noundef %38, ptr noundef %39, ptr noundef %40, i1 noundef zeroext %42, i32 noundef %43)
  %44 = load ptr, ptr %9, align 8
  %45 = load ptr, ptr %13, align 8
  %46 = load i8, ptr %16, align 1, !range !6, !noundef !7
  %47 = trunc i8 %46 to i1
  %48 = load i32, ptr @boundary, align 4
  %49 = call i32 @get_CDR_ulong(ptr noundef %44, ptr noundef %45, i1 noundef zeroext %47, i32 noundef %48)
  store i32 %49, ptr %17, align 4
  %50 = load ptr, ptr %11, align 8
  %51 = load i32, ptr @hf_GIAS_CreationMgr_create_association_view_b_objects_loop, align 4
  %52 = load ptr, ptr %9, align 8
  %53 = load ptr, ptr %13, align 8
  %54 = load i32, ptr %53, align 4
  %55 = sub i32 %54, 4
  %56 = load i32, ptr %17, align 4
  %57 = call ptr @proto_tree_add_uint(ptr noundef %50, i32 noundef %51, ptr noundef %52, i32 noundef %55, i32 noundef 4, i32 noundef %56)
  call void @llvm.lifetime.start.p0(i64 8, ptr %21) #6
  %58 = load ptr, ptr %11, align 8
  store ptr %58, ptr %21, align 8
  %59 = load ptr, ptr %11, align 8
  %60 = load ptr, ptr %9, align 8
  %61 = load ptr, ptr %13, align 8
  %62 = load i32, ptr %61, align 4
  %63 = load i32, ptr @ett_giop_sequence, align 4
  %64 = call ptr @proto_tree_add_subtree(ptr noundef %59, ptr noundef %60, i32 noundef %62, i32 noundef -1, i32 noundef %63, ptr noundef null, ptr noundef @.str.887)
  store ptr %64, ptr %11, align 8
  store i32 0, ptr %18, align 4
  br label %65

65:                                               ; preds = %77, %29
  %66 = load i32, ptr %18, align 4
  %67 = load i32, ptr %17, align 4
  %68 = icmp ult i32 %66, %67
  br i1 %68, label %69, label %80

69:                                               ; preds = %65
  %70 = load ptr, ptr %9, align 8
  %71 = load ptr, ptr %10, align 8
  %72 = load ptr, ptr %11, align 8
  %73 = load ptr, ptr %13, align 8
  %74 = load i8, ptr %16, align 1, !range !6, !noundef !7
  %75 = trunc i8 %74 to i1
  %76 = load i32, ptr @boundary, align 4
  call void @get_CDR_object(ptr noundef %70, ptr noundef %71, ptr noundef %72, ptr noundef %73, i1 noundef zeroext %75, i32 noundef %76)
  br label %77

77:                                               ; preds = %69
  %78 = load i32, ptr %18, align 4
  %79 = add i32 %78, 1
  store i32 %79, ptr %18, align 4
  br label %65, !llvm.loop !35

80:                                               ; preds = %65
  %81 = load ptr, ptr %21, align 8
  store ptr %81, ptr %11, align 8
  call void @llvm.lifetime.end.p0(i64 8, ptr %21) #6
  %82 = load ptr, ptr %9, align 8
  %83 = load ptr, ptr %13, align 8
  %84 = load i8, ptr %16, align 1, !range !6, !noundef !7
  %85 = trunc i8 %84 to i1
  %86 = load i32, ptr @boundary, align 4
  %87 = call i32 @get_CDR_ulong(ptr noundef %82, ptr noundef %83, i1 noundef zeroext %85, i32 noundef %86)
  store i32 %87, ptr %19, align 4
  %88 = load ptr, ptr %11, align 8
  %89 = load i32, ptr @hf_GIAS_CreationMgr_create_association_assoc_info_loop, align 4
  %90 = load ptr, ptr %9, align 8
  %91 = load ptr, ptr %13, align 8
  %92 = load i32, ptr %91, align 4
  %93 = sub i32 %92, 4
  %94 = load i32, ptr %19, align 4
  %95 = call ptr @proto_tree_add_uint(ptr noundef %88, i32 noundef %89, ptr noundef %90, i32 noundef %93, i32 noundef 4, i32 noundef %94)
  call void @llvm.lifetime.start.p0(i64 8, ptr %22) #6
  %96 = load ptr, ptr %11, align 8
  store ptr %96, ptr %22, align 8
  %97 = load ptr, ptr %11, align 8
  %98 = load ptr, ptr %9, align 8
  %99 = load ptr, ptr %13, align 8
  %100 = load i32, ptr %99, align 4
  %101 = load i32, ptr @ett_giop_sequence, align 4
  %102 = call ptr @proto_tree_add_subtree(ptr noundef %97, ptr noundef %98, i32 noundef %100, i32 noundef -1, i32 noundef %101, ptr noundef null, ptr noundef @.str.888)
  store ptr %102, ptr %11, align 8
  store i32 0, ptr %20, align 4
  br label %103

103:                                              ; preds = %123, %80
  %104 = load i32, ptr %20, align 4
  %105 = load i32, ptr %19, align 4
  %106 = icmp ult i32 %104, %105
  br i1 %106, label %107, label %126

107:                                              ; preds = %103
  call void @llvm.lifetime.start.p0(i64 8, ptr %23) #6
  %108 = load ptr, ptr %11, align 8
  %109 = load ptr, ptr %9, align 8
  %110 = load ptr, ptr %13, align 8
  %111 = load i32, ptr %110, align 4
  %112 = load i32, ptr @ett_giop_struct, align 4
  %113 = call ptr @proto_tree_add_subtree(ptr noundef %108, ptr noundef %109, i32 noundef %111, i32 noundef -1, i32 noundef %112, ptr noundef null, ptr noundef @.str.855)
  store ptr %113, ptr %23, align 8
  %114 = load ptr, ptr %9, align 8
  %115 = load ptr, ptr %10, align 8
  %116 = load ptr, ptr %23, align 8
  %117 = load ptr, ptr %12, align 8
  %118 = load ptr, ptr %13, align 8
  %119 = load ptr, ptr %14, align 8
  %120 = load ptr, ptr %15, align 8
  %121 = load i8, ptr %16, align 1, !range !6, !noundef !7
  %122 = trunc i8 %121 to i1
  call void @decode_UCO_NameValue_st(ptr noundef %114, ptr noundef %115, ptr noundef %116, ptr noundef %117, ptr noundef %118, ptr noundef %119, ptr noundef %120, i1 noundef zeroext %122)
  call void @llvm.lifetime.end.p0(i64 8, ptr %23) #6
  br label %123

123:                                              ; preds = %107
  %124 = load i32, ptr %20, align 4
  %125 = add i32 %124, 1
  store i32 %125, ptr %20, align 4
  br label %103, !llvm.loop !36

126:                                              ; preds = %103
  %127 = load ptr, ptr %22, align 8
  store ptr %127, ptr %11, align 8
  call void @llvm.lifetime.end.p0(i64 8, ptr %22) #6
  br label %156

128:                                              ; preds = %8
  %129 = load ptr, ptr %14, align 8
  %130 = getelementptr inbounds nuw %struct.MessageHeader, ptr %129, i32 0, i32 6
  %131 = load i32, ptr %130, align 8
  switch i32 %131, label %140 [
    i32 0, label %132
    i32 1, label %147
  ]

132:                                              ; preds = %128
  %133 = load ptr, ptr %9, align 8
  %134 = load ptr, ptr %10, align 8
  %135 = load ptr, ptr %11, align 8
  %136 = load ptr, ptr %13, align 8
  %137 = load i8, ptr %16, align 1, !range !6, !noundef !7
  %138 = trunc i8 %137 to i1
  %139 = load i32, ptr @boundary, align 4
  call void @get_CDR_object(ptr noundef %133, ptr noundef %134, ptr noundef %135, ptr noundef %136, i1 noundef zeroext %138, i32 noundef %139)
  br label %147

140:                                              ; preds = %128
  %141 = load ptr, ptr %10, align 8
  %142 = load ptr, ptr %12, align 8
  %143 = load ptr, ptr %14, align 8
  %144 = getelementptr inbounds nuw %struct.MessageHeader, ptr %143, i32 0, i32 6
  %145 = load i32, ptr %144, align 8
  %146 = call ptr (ptr, ptr, ptr, ptr, ...) @expert_add_info_format(ptr noundef %141, ptr noundef %142, ptr noundef @ei_gias_unknown_exception, ptr noundef @.str.826, i32 noundef %145)
  br label %147

147:                                              ; preds = %140, %128, %132
  br label %156

148:                                              ; preds = %8
  %149 = load ptr, ptr %10, align 8
  %150 = load ptr, ptr %12, align 8
  %151 = load ptr, ptr %14, align 8
  %152 = getelementptr inbounds nuw %struct.MessageHeader, ptr %151, i32 0, i32 3
  %153 = load i8, ptr %152, align 1
  %154 = zext i8 %153 to i32
  %155 = call ptr (ptr, ptr, ptr, ptr, ...) @expert_add_info_format(ptr noundef %149, ptr noundef %150, ptr noundef @ei_gias_unknown_giop_msg, ptr noundef @.str.827, i32 noundef %154)
  br label %156

156:                                              ; preds = %148, %147, %126
  call void @llvm.lifetime.end.p0(i64 4, ptr %20) #6
  call void @llvm.lifetime.end.p0(i64 4, ptr %19) #6
  call void @llvm.lifetime.end.p0(i64 4, ptr %18) #6
  call void @llvm.lifetime.end.p0(i64 4, ptr %17) #6
  ret void
}