; Function Attrs: null_pointer_is_valid sspstrong uwtable
define internal fastcc void @decode_GIAS_CreationMgr_create_association(ptr noundef %0, ptr noundef %1, ptr noundef %2, ptr noundef %3, ptr noundef %4, ptr noundef %5, i1 noundef zeroext %6) unnamed_addr #0 {
  %8 = getelementptr inbounds nuw i8, ptr %5, i64 7
  %9 = load i8, ptr %8, align 1
  switch i8 %9, label %40 [
    i8 0, label %10
    i8 1, label %34
  ]

10:                                               ; preds = %7
  %11 = load i32, ptr @hf_GIAS_CreationMgr_create_association_assoc_name, align 4
  tail call void @giop_add_CDR_string(ptr noundef %2, ptr noundef %0, ptr noundef %4, i1 noundef zeroext %6, i32 noundef 12, i32 noundef %11)
  tail call void @get_CDR_object(ptr noundef %0, ptr noundef %1, ptr noundef %2, ptr noundef %4, i1 noundef zeroext %6, i32 noundef 12)
  %12 = tail call i32 @get_CDR_ulong(ptr noundef %0, ptr noundef %4, i1 noundef zeroext %6, i32 noundef 12)
  %13 = load i32, ptr @hf_GIAS_CreationMgr_create_association_view_b_objects_loop, align 4
  %14 = load i32, ptr %4, align 4
  %15 = add i32 %14, -4
  %16 = tail call ptr @proto_tree_add_uint(ptr noundef %2, i32 noundef %13, ptr noundef %0, i32 noundef %15, i32 noundef 4, i32 noundef %12)
  %17 = load i32, ptr %4, align 4
  %18 = load i32, ptr @ett_giop_sequence, align 4
  %19 = tail call ptr @proto_tree_add_subtree(ptr noundef %2, ptr noundef %0, i32 noundef %17, i32 noundef -1, i32 noundef %18, ptr noundef null, ptr noundef nonnull @.str.887)
  %.not = icmp eq i32 %12, 0
  br i1 %.not, label %._crit_edge, label %.lr.ph

.lr.ph:                                           ; preds = %10, %.lr.ph
  %.01 = phi i32 [ %20, %.lr.ph ], [ 0, %10 ]
  tail call void @get_CDR_object(ptr noundef %0, ptr noundef %1, ptr noundef %19, ptr noundef %4, i1 noundef zeroext %6, i32 noundef 12)
  %20 = add nuw i32 %.01, 1
  %exitcond.not = icmp eq i32 %20, %12
  br i1 %exitcond.not, label %._crit_edge, label %.lr.ph, !llvm.loop !35

._crit_edge:                                      ; preds = %.lr.ph, %10
  %21 = tail call i32 @get_CDR_ulong(ptr noundef %0, ptr noundef %4, i1 noundef zeroext %6, i32 noundef 12)
  %22 = load i32, ptr @hf_GIAS_CreationMgr_create_association_assoc_info_loop, align 4
  %23 = load i32, ptr %4, align 4
  %24 = add i32 %23, -4
  %25 = tail call ptr @proto_tree_add_uint(ptr noundef %2, i32 noundef %22, ptr noundef %0, i32 noundef %24, i32 noundef 4, i32 noundef %21)
  %26 = load i32, ptr %4, align 4
  %27 = load i32, ptr @ett_giop_sequence, align 4
  %28 = tail call ptr @proto_tree_add_subtree(ptr noundef %2, ptr noundef %0, i32 noundef %26, i32 noundef -1, i32 noundef %27, ptr noundef null, ptr noundef nonnull @.str.888)
  %.not5 = icmp eq i32 %21, 0
  br i1 %.not5, label %.loopexit, label %.lr.ph4

.lr.ph4:                                          ; preds = %._crit_edge, %.lr.ph4
  %.0672 = phi i32 [ %33, %.lr.ph4 ], [ 0, %._crit_edge ]
  %29 = load i32, ptr %4, align 4
  %30 = load i32, ptr @ett_giop_struct, align 4
  %31 = tail call ptr @proto_tree_add_subtree(ptr noundef %28, ptr noundef %0, i32 noundef %29, i32 noundef -1, i32 noundef %30, ptr noundef null, ptr noundef nonnull @.str.855)
  %32 = load i32, ptr @hf_UCO_NameValue_aname, align 4
  tail call void @giop_add_CDR_string(ptr noundef %31, ptr noundef %0, ptr noundef %4, i1 noundef zeroext %6, i32 noundef 12, i32 noundef %32)
  tail call void @get_CDR_any(ptr noundef %0, ptr noundef %1, ptr noundef %31, ptr noundef %3, ptr noundef %4, i1 noundef zeroext %6, i32 noundef 12, ptr noundef %5)
  %33 = add nuw i32 %.0672, 1
  %exitcond6.not = icmp eq i32 %33, %21
  br i1 %exitcond6.not, label %.loopexit, label %.lr.ph4, !llvm.loop !36

34:                                               ; preds = %7
  %35 = getelementptr inbounds nuw i8, ptr %5, i64 16
  %36 = load i32, ptr %35, align 8
  switch i32 %36, label %38 [
    i32 0, label %37
    i32 1, label %.loopexit
  ]

37:                                               ; preds = %34
  tail call void @get_CDR_object(ptr noundef %0, ptr noundef %1, ptr noundef %2, ptr noundef %4, i1 noundef zeroext %6, i32 noundef 12)
  br label %.loopexit

38:                                               ; preds = %34
  %39 = tail call ptr (ptr, ptr, ptr, ptr, ...) @expert_add_info_format(ptr noundef %1, ptr noundef %3, ptr noundef nonnull @ei_gias_unknown_exception, ptr noundef nonnull @.str.826, i32 noundef %36)
  br label %.loopexit

40:                                               ; preds = %7
  %41 = zext i8 %9 to i32
  %42 = tail call ptr (ptr, ptr, ptr, ptr, ...) @expert_add_info_format(ptr noundef %1, ptr noundef %3, ptr noundef nonnull @ei_gias_unknown_giop_msg, ptr noundef nonnull @.str.827, i32 noundef %41)
  br label %.loopexit

.loopexit:                                        ; preds = %.lr.ph4, %._crit_edge, %34, %37, %38, %40
  ret void
}